Certificate:
    Data:
        Version: 3 (0x2)
        Serial Number: 1 (0x1)
        Signature Algorithm: sha256WithRSAEncryption
        Issuer: CN=devcert
        Validity
            Not Before: May  3 04:26:15 2020 GMT
            Not After : Aug  6 04:26:15 2022 GMT
        Subject: CN=localhost
        Subject Public Key Info:
            Public Key Algorithm: rsaEncryption
                RSA Public-Key: (2048 bit)
                Modulus:
                    00:b7:49:f1:ee:e9:50:98:9a:78:c7:e6:db:8a:b5:
                    91:41:a5:82:85:ef:7b:da:4b:de:3f:93:09:be:da:
                    4c:f5:22:67:e7:4e:72:24:b3:83:10:c7:14:20:47:
                    df:3d:14:6b:84:b8:15:6b:f1:dc:fc:6a:f8:d4:45:
                    2b:38:50:df:43:fe:ce:a5:2d:99:64:f7:92:65:d3:
                    2c:91:61:a4:2d:52:ba:5a:1f:06:60:e1:6c:52:d2:
                    73:f3:65:d8:c5:b9:f6:d8:54:3b:73:cc:d8:51:26:
                    12:77:31:a6:fd:98:be:98:20:ac:69:95:de:5c:7d:
                    6b:b3:76:40:c2:e8:59:f6:a2:c2:93:1b:e2:f8:e3:
                    a5:36:9d:6d:b0:42:d6:3e:6f:04:e2:ed:f7:f0:fd:
                    c0:21:2f:65:3b:04:6c:ba:4d:04:28:a6:c7:a2:43:
                    24:2e:c4:04:1d:66:74:71:80:c5:70:61:44:2b:c1:
                    9a:5d:30:7b:4b:23:ff:cd:30:69:0e:48:31:34:a3:
                    1c:91:04:dc:83:a6:ac:97:24:8a:e2:16:13:3f:a6:
                    9d:77:f8:f8:b0:40:c4:a2:75:5b:42:81:4b:87:54:
                    43:09:a1:72:c3:09:89:04:db:ab:26:cd:48:bf:12:
                    7f:f8:95:88:66:c0:9b:f7:97:e3:a1:89:cc:19:a4:
                    11:77
                Exponent: 65537 (0x10001)
        X509v3 extensions:
            X509v3 Basic Constraints: critical
                CA:FALSE
            X509v3 Subject Key Identifier: 
                99:80:E0:4E:55:C1:60:42:33:EF:41:50:2E:5B:AC:E3:DC:E9:DD:A6
            X509v3 Authority Key Identifier: 
                keyid:2F:C3:2B:5D:41:A4:8D:A0:69:6D:8E:11:92:31:A5:06:43:CA:9D:DD
                DirName:/CN=devcert
                serial:1F:6F:E1:F0:65:5E:39:0C:11:CF:B5:DB:FE:6C:4F:0F:B7:AC:19:23

            X509v3 Key Usage: critical
                Digital Signature, Key Encipherment
            X509v3 Extended Key Usage: 
                TLS Web Server Authentication
            X509v3 Subject Alternative Name: 
                DNS:localhost, DNS:*.localhost
    Signature Algorithm: sha256WithRSAEncryption
         4c:16:fd:20:b7:fc:30:ad:eb:d2:b6:97:ec:73:ec:b2:77:be:
         a0:5f:25:43:9f:32:f2:09:0b:89:8c:61:fc:6d:31:7f:7f:e1:
         69:8c:f6:b1:d1:75:6b:a4:f5:6b:06:87:25:f4:44:f4:72:9a:
         c6:dc:7d:85:8e:8c:22:a8:9a:bf:8f:2e:da:85:15:d5:d8:dd:
         80:9d:88:80:79:d3:f6:a7:b9:e8:a0:82:ec:0b:2f:ba:cf:1e:
         d3:1f:4f:0f:39:db:b0:2d:60:6a:06:b9:d0:9b:8a:89:37:66:
         6a:a3:ee:e3:87:fc:d9:80:5b:6d:a3:4f:99:26:23:e1:c9:e4:
         d2:61:61:54:2f:e6:de:d1:51:18:b1:eb:cd:f8:eb:18:20:89:
         81:34:71:27:c7:40:e1:99:18:89:a9:5b:32:86:2b:c8:ff:31:
         0b:99:b4:c1:4c:88:b9:e0:bc:a1:8b:ee:7f:fd:9b:89:e1:b9:
         78:da:61:8d:b9:fe:46:05:16:7a:4e:91:3a:97:95:99:78:82:
         f5:c7:0e:ad:25:76:71:bf:eb:5a:cc:d2:0c:38:3f:b7:41:34:
         d2:9e:9a:8d:bf:18:c5:ca:bb:fd:dd:f2:a1:2a:38:27:ab:28:
         cd:8b:aa:1c:28:ae:a7:81:97:53:ce:42:d1:12:88:52:e2:74:
         06:24:3d:33
-----BEGIN CERTIFICATE-----
MIIDaTCCAlGgAwIBAgIBATANBgkqhkiG9w0BAQsFADASMRAwDgYDVQQDDAdkZXZj
ZXJ0MB4XDTIwMDUwMzA0MjYxNVoXDTIyMDgwNjA0MjYxNVowFDESMBAGA1UEAwwJ
bG9jYWxob3N0MIIBIjANBgkqhkiG9w0BAQEFAAOCAQ8AMIIBCgKCAQEAt0nx7ulQ
mJp4x+bbirWRQaWChe972kveP5MJvtpM9SJn505yJLODEMcUIEffPRRrhLgVa/Hc
/Gr41EUrOFDfQ/7OpS2ZZPeSZdMskWGkLVK6Wh8GYOFsUtJz82XYxbn22FQ7c8zY
USYSdzGm/Zi+mCCsaZXeXH1rs3ZAwuhZ9qLCkxvi+OOlNp1tsELWPm8E4u338P3A
IS9lOwRsuk0EKKbHokMkLsQEHWZ0cYDFcGFEK8GaXTB7SyP/zTBpDkgxNKMckQTc
g6aslySK4hYTP6add/j4sEDEonVbQoFLh1RDCaFywwmJBNurJs1IvxJ/+JWIZsCb
95fjoYnMGaQRdwIDAQABo4HHMIHEMAwGA1UdEwEB/wQCMAAwHQYDVR0OBBYEFJmA
4E5VwWBCM+9BUC5brOPc6d2mME0GA1UdIwRGMESAFC/DK11BpI2gaW2OEZIxpQZD
yp3doRakFDASMRAwDgYDVQQDDAdkZXZjZXJ0ghQfb+HwZV45DBHPtdv+bE8Pt6wZ
IzAOBgNVHQ8BAf8EBAMCBaAwEwYDVR0lBAwwCgYIKwYBBQUHAwEwIQYDVR0RBBow
GIIJbG9jYWxob3N0ggsqLmxvY2FsaG9zdDANBgkqhkiG9w0BAQsFAAOCAQEATBb9
ILf8MK3r0raX7HPssne+oF8lQ58y8gkLiYxh/G0xf3/haYz2sdF1a6T1awaHJfRE
9HKaxtx9hY6MIqiav48u2oUV1djdgJ2IgHnT9qe56KCC7Asvus8e0x9PDznbsC1g
aga50JuKiTdmaqPu44f82YBbbaNPmSYj4cnk0mFhVC/m3tFRGLHrzfjrGCCJgTRx
J8dA4ZkYialbMoYryP8xC5m0wUyIueC8oYvuf/2bieG5eNphjbn+RgUWek6ROpeV
mXiC9ccOrSV2cb/rWszSDDg/t0E00p6ajb8Yxcq7/d3yoSo4J6sozYuqHCiup4GX
U85C0RKIUuJ0BiQ9Mw==
-----END CERTIFICATE-----
